target datalayout = "e-m:e-p270:32:32-p271:32:32-p272:64:64-i64:64-i128:128-f80:128-n8:16:32:64-S128"
target triple = "x86_64-pc-linux-gnu"

%struct.H5C_class_t = type { i32, ptr, i32, i32, ptr, ptr, ptr, ptr, ptr, ptr, ptr, ptr, ptr, ptr }
%struct.H5G_node_t = type { %struct.H5C_cache_entry_t, i64, i32, ptr }
%struct.H5C_cache_entry_t = type { ptr, i64, i64, ptr, i8, ptr, i8, i8, i8, i8, i32, i8, i8, i8, i8, i8, i32, ptr, i32, i32, i32, i32, i32, i8, i8, ptr, ptr, ptr, ptr, ptr, ptr, i8, i32, i8, i64, ptr, i64, i64, i32, i8, i32, i32, i8, ptr, ptr, ptr }
%struct.H5G_bt_common_t = type { ptr, ptr, i64 }
%struct.H5G_bt_lkp_t = type { %struct.H5G_bt_common_t, ptr, ptr }
%struct.H5G_entry_t = type { i32, %union.H5G_cache_t, i64, i64 }
%union.H5G_cache_t = type { %struct.anon }
%struct.anon = type { i64, i64 }

@H5G_init_g = external global i8, align 1
@H5_libterm_g = external global i8, align 1
@H5AC_SNODE = external constant [1 x %struct.H5C_class_t], align 16
@.str.2 = private unnamed_addr constant [101 x i8] c"generated/home/dtcxzyw/WorkSpace/Projects/compilers/llvm-opt-benchmark/bench/hdf5/hdf5/src/H5Gnode.c\00", align 1
@H5E_SYM_g = external global i64, align 8
@H5E_CANTPROTECT_g = external global i64, align 8
@H5E_CANTUNPROTECT_g = external global i64, align 8
@H5E_CANTGET_g = external global i64, align 8
@.str.36 = private unnamed_addr constant [36 x i8] c"unable to release symbol table node\00", align 1
@__func__.H5G__node_found = private unnamed_addr constant [16 x i8] c"H5G__node_found\00", align 1
@.str.45 = private unnamed_addr constant [36 x i8] c"unable to protect symbol table node\00", align 1
@.str.46 = private unnamed_addr constant [32 x i8] c"unable to get symbol table name\00", align 1
@H5E_BADITER_g = external global i64, align 8
@.str.47 = private unnamed_addr constant [25 x i8] c"iterator callback failed\00", align 1

; Function Attrs: nounwind uwtable
define internal i32 @H5G__node_found(ptr noundef %0, i64 noundef %1, ptr noundef %2, ptr noundef %3, ptr noundef %4) #0 {
  %6 = alloca ptr, align 8
  %7 = alloca i64, align 8
  %8 = alloca ptr, align 8
  %9 = alloca ptr, align 8
  %10 = alloca ptr, align 8
  %11 = alloca ptr, align 8
  %12 = alloca ptr, align 8
  %13 = alloca i32, align 4
  %14 = alloca i32, align 4
  %15 = alloca i32, align 4
  %16 = alloca i32, align 4
  %17 = alloca ptr, align 8
  %18 = alloca i32, align 4
  %19 = alloca i8, align 1
  store ptr %0, ptr %6, align 8, !tbaa !3
  store i64 %1, ptr %7, align 8, !tbaa !21
  store ptr %2, ptr %8, align 8, !tbaa !8
  store ptr %3, ptr %9, align 8, !tbaa !44
  store ptr %4, ptr %10, align 8, !tbaa !8
  call void @llvm.lifetime.start.p0(i64 8, ptr %11) #8
  %20 = load ptr, ptr %10, align 8, !tbaa !8
  store ptr %20, ptr %11, align 8, !tbaa !46
  call void @llvm.lifetime.start.p0(i64 8, ptr %12) #8
  store ptr null, ptr %12, align 8, !tbaa !19
  call void @llvm.lifetime.start.p0(i64 4, ptr %13) #8
  store i32 0, ptr %13, align 4, !tbaa !13
  call void @llvm.lifetime.start.p0(i64 4, ptr %14) #8
  store i32 0, ptr %14, align 4, !tbaa !13
  call void @llvm.lifetime.start.p0(i64 4, ptr %15) #8
  call void @llvm.lifetime.start.p0(i64 4, ptr %16) #8
  store i32 1, ptr %16, align 4, !tbaa !13
  call void @llvm.lifetime.start.p0(i64 8, ptr %17) #8
  call void @llvm.lifetime.start.p0(i64 4, ptr %18) #8
  store i32 0, ptr %18, align 4, !tbaa !13
  call void @llvm.lifetime.start.p0(i64 1, ptr %19) #8
  store i8 0, ptr %19, align 1, !tbaa !9
  %21 = load i8, ptr @H5G_init_g, align 1, !tbaa !9, !range !11, !noundef !12
  %22 = trunc i8 %21 to i1
  br i1 %22, label %27, label %23

23:                                               ; preds = %5
  %24 = load i8, ptr @H5_libterm_g, align 1, !tbaa !9, !range !11, !noundef !12
  %25 = trunc i8 %24 to i1
  %26 = xor i1 %25, true
  br label %27

27:                                               ; preds = %23, %5
  %28 = phi i1 [ true, %5 ], [ %26, %23 ]
  %29 = xor i1 %28, true
  %30 = xor i1 %29, true
  %31 = zext i1 %30 to i32
  %32 = sext i32 %31 to i64
  %33 = call i64 @llvm.expect.i64(i64 %32, i64 1)
  %34 = icmp ne i64 %33, 0
  br i1 %34, label %35, label %207

35:                                               ; preds = %27
  %36 = load ptr, ptr %6, align 8, !tbaa !3
  %37 = load i64, ptr %7, align 8, !tbaa !21
  %38 = load ptr, ptr %6, align 8, !tbaa !3
  %39 = call ptr @H5AC_protect(ptr noundef %36, ptr noundef @H5AC_SNODE, i64 noundef %37, ptr noundef %38, i32 noundef 128)
  store ptr %39, ptr %12, align 8, !tbaa !19
  %40 = icmp eq ptr null, %39
  br i1 %40, label %41, label %60

41:                                               ; preds = %35
  br label %42

42:                                               ; preds = %41
  br label %43

43:                                               ; preds = %42
  br label %44

44:                                               ; preds = %43
  %45 = load i64, ptr @H5E_SYM_g, align 8, !tbaa !21
  %46 = load i64, ptr @H5E_CANTPROTECT_g, align 8, !tbaa !21
  %47 = call i32 (ptr, ptr, i32, i64, i64, ptr, ...) @H5E_printf_stack(ptr noundef @.str.2, ptr noundef @__func__.H5G__node_found, i32 noundef 474, i64 noundef %45, i64 noundef %46, ptr noundef @.str.45)
  br label %48

48:                                               ; preds = %44
  br label %49

49:                                               ; preds = %48
  store i8 1, ptr %19, align 1, !tbaa !9
  %50 = load i8, ptr %19, align 1, !tbaa !9, !range !11, !noundef !12
  %51 = trunc i8 %50 to i1
  %52 = zext i1 %51 to i8
  store i8 %52, ptr %19, align 1, !tbaa !9
  br label %53

53:                                               ; preds = %49
  br label %54

54:                                               ; preds = %53
  br label %55

55:                                               ; preds = %54
  store i32 -1, ptr %18, align 4, !tbaa !13
  br label %181

56:                                               ; No predecessors!
  br label %57

57:                                               ; preds = %56
  br label %58

58:                                               ; preds = %57
  br label %59

59:                                               ; preds = %58
  br label %60

60:                                               ; preds = %59, %35
  %61 = load ptr, ptr %12, align 8, !tbaa !19
  %62 = getelementptr inbounds nuw %struct.H5G_node_t, ptr %61, i32 0, i32 2
  %63 = load i32, ptr %62, align 8, !tbaa !48
  store i32 %63, ptr %15, align 4, !tbaa !13
  br label %64

64:                                               ; preds = %138, %60
  %65 = load i32, ptr %13, align 4, !tbaa !13
  %66 = load i32, ptr %15, align 4, !tbaa !13
  %67 = icmp ult i32 %65, %66
  br i1 %67, label %68, label %71

68:                                               ; preds = %64
  %69 = load i32, ptr %16, align 4, !tbaa !13
  %70 = icmp ne i32 %69, 0
  br label %71

71:                                               ; preds = %68, %64
  %72 = phi i1 [ false, %64 ], [ %70, %68 ]
  br i1 %72, label %73, label %139

73:                                               ; preds = %71
  %74 = load i32, ptr %13, align 4, !tbaa !13
  %75 = load i32, ptr %15, align 4, !tbaa !13
  %76 = add i32 %74, %75
  %77 = udiv i32 %76, 2
  store i32 %77, ptr %14, align 4, !tbaa !13
  %78 = load ptr, ptr %11, align 8, !tbaa !46
  %79 = getelementptr inbounds nuw %struct.H5G_bt_lkp_t, ptr %78, i32 0, i32 0
  %80 = getelementptr inbounds nuw %struct.H5G_bt_common_t, ptr %79, i32 0, i32 1
  %81 = load ptr, ptr %80, align 8, !tbaa !49
  %82 = load ptr, ptr %12, align 8, !tbaa !19
  %83 = getelementptr inbounds nuw %struct.H5G_node_t, ptr %82, i32 0, i32 3
  %84 = load ptr, ptr %83, align 8, !tbaa !32
  %85 = load i32, ptr %14, align 4, !tbaa !13
  %86 = zext i32 %85 to i64
  %87 = getelementptr inbounds nuw %struct.H5G_entry_t, ptr %84, i64 %86
  %88 = getelementptr inbounds nuw %struct.H5G_entry_t, ptr %87, i32 0, i32 2
  %89 = load i64, ptr %88, align 8, !tbaa !51
  %90 = call ptr @H5HL_offset_into(ptr noundef %81, i64 noundef %89)
  store ptr %90, ptr %17, align 8, !tbaa !41
  %91 = icmp eq ptr %90, null
  br i1 %91, label %92, label %111

92:                                               ; preds = %73
  br label %93

93:                                               ; preds = %92
  br label %94

94:                                               ; preds = %93
  br label %95

95:                                               ; preds = %94
  %96 = load i64, ptr @H5E_SYM_g, align 8, !tbaa !21
  %97 = load i64, ptr @H5E_CANTGET_g, align 8, !tbaa !21
  %98 = call i32 (ptr, ptr, i32, i64, i64, ptr, ...) @H5E_printf_stack(ptr noundef @.str.2, ptr noundef @__func__.H5G__node_found, i32 noundef 484, i64 noundef %96, i64 noundef %97, ptr noundef @.str.46)
  br label %99

99:                                               ; preds = %95
  br label %100

100:                                              ; preds = %99
  store i8 1, ptr %19, align 1, !tbaa !9
  %101 = load i8, ptr %19, align 1, !tbaa !9, !range !11, !noundef !12
  %102 = trunc i8 %101 to i1
  %103 = zext i1 %102 to i8
  store i8 %103, ptr %19, align 1, !tbaa !9
  br label %104

104:                                              ; preds = %100
  br label %105

105:                                              ; preds = %104
  br label %106

106:                                              ; preds = %105
  store i32 -1, ptr %18, align 4, !tbaa !13
  br label %181

107:                                              ; No predecessors!
  br label %108

108:                                              ; preds = %107
  br label %109

109:                                              ; preds = %108
  br label %110

110:                                              ; preds = %109
  br label %111

111:                                              ; preds = %110, %73
  %112 = load ptr, ptr %11, align 8, !tbaa !46
  %113 = getelementptr inbounds nuw %struct.H5G_bt_lkp_t, ptr %112, i32 0, i32 0
  %114 = getelementptr inbounds nuw %struct.H5G_bt_common_t, ptr %113, i32 0, i32 0
  %115 = load ptr, ptr %114, align 8, !tbaa !53
  %116 = load ptr, ptr %17, align 8, !tbaa !41
  %117 = load ptr, ptr %11, align 8, !tbaa !46
  %118 = getelementptr inbounds nuw %struct.H5G_bt_lkp_t, ptr %117, i32 0, i32 0
  %119 = getelementptr inbounds nuw %struct.H5G_bt_common_t, ptr %118, i32 0, i32 2
  %120 = load i64, ptr %119, align 8, !tbaa !54
  %121 = load ptr, ptr %12, align 8, !tbaa !19
  %122 = getelementptr inbounds nuw %struct.H5G_node_t, ptr %121, i32 0, i32 3
  %123 = load ptr, ptr %122, align 8, !tbaa !32
  %124 = load i32, ptr %14, align 4, !tbaa !13
  %125 = zext i32 %124 to i64
  %126 = getelementptr inbounds nuw %struct.H5G_entry_t, ptr %123, i64 %125
  %127 = getelementptr inbounds nuw %struct.H5G_entry_t, ptr %126, i32 0, i32 2
  %128 = load i64, ptr %127, align 8, !tbaa !51
  %129 = sub i64 %120, %128
  %130 = call i32 @strncmp(ptr noundef %115, ptr noundef %116, i64 noundef %129) #9
  store i32 %130, ptr %16, align 4, !tbaa !13
  %131 = load i32, ptr %16, align 4, !tbaa !13
  %132 = icmp slt i32 %131, 0
  br i1 %132, label %133, label %135

133:                                              ; preds = %111
  %134 = load i32, ptr %14, align 4, !tbaa !13
  store i32 %134, ptr %15, align 4, !tbaa !13
  br label %138

135:                                              ; preds = %111
  %136 = load i32, ptr %14, align 4, !tbaa !13
  %137 = add i32 %136, 1
  store i32 %137, ptr %13, align 4, !tbaa !13
  br label %138

138:                                              ; preds = %135, %133
  br label %64, !llvm.loop !55

139:                                              ; preds = %71
  %140 = load i32, ptr %16, align 4, !tbaa !13
  %141 = icmp ne i32 %140, 0
  br i1 %141, label %142, label %144

142:                                              ; preds = %139
  %143 = load ptr, ptr %9, align 8, !tbaa !44
  store i8 0, ptr %143, align 1, !tbaa !9
  br label %180

144:                                              ; preds = %139
  %145 = load ptr, ptr %9, align 8, !tbaa !44
  store i8 1, ptr %145, align 1, !tbaa !9
  %146 = load ptr, ptr %11, align 8, !tbaa !46
  %147 = getelementptr inbounds nuw %struct.H5G_bt_lkp_t, ptr %146, i32 0, i32 1
  %148 = load ptr, ptr %147, align 8, !tbaa !57
  %149 = load ptr, ptr %12, align 8, !tbaa !19
  %150 = getelementptr inbounds nuw %struct.H5G_node_t, ptr %149, i32 0, i32 3
  %151 = load ptr, ptr %150, align 8, !tbaa !32
  %152 = load i32, ptr %14, align 4, !tbaa !13
  %153 = zext i32 %152 to i64
  %154 = getelementptr inbounds nuw %struct.H5G_entry_t, ptr %151, i64 %153
  %155 = load ptr, ptr %11, align 8, !tbaa !46
  %156 = getelementptr inbounds nuw %struct.H5G_bt_lkp_t, ptr %155, i32 0, i32 2
  %157 = load ptr, ptr %156, align 8, !tbaa !58
  %158 = call i32 %148(ptr noundef %154, ptr noundef %157)
  %159 = icmp slt i32 %158, 0
  br i1 %159, label %160, label %179

160:                                              ; preds = %144
  br label %161

161:                                              ; preds = %160
  br label %162

162:                                              ; preds = %161
  br label %163

163:                                              ; preds = %162
  %164 = load i64, ptr @H5E_SYM_g, align 8, !tbaa !21
  %165 = load i64, ptr @H5E_BADITER_g, align 8, !tbaa !21
  %166 = call i32 (ptr, ptr, i32, i64, i64, ptr, ...) @H5E_printf_stack(ptr noundef @.str.2, ptr noundef @__func__.H5G__node_found, i32 noundef 501, i64 noundef %164, i64 noundef %165, ptr noundef @.str.47)
  br label %167

167:                                              ; preds = %163
  br label %168

168:                                              ; preds = %167
  store i8 1, ptr %19, align 1, !tbaa !9
  %169 = load i8, ptr %19, align 1, !tbaa !9, !range !11, !noundef !12
  %170 = trunc i8 %169 to i1
  %171 = zext i1 %170 to i8
  store i8 %171, ptr %19, align 1, !tbaa !9
  br label %172

172:                                              ; preds = %168
  br label %173

173:                                              ; preds = %172
  br label %174

174:                                              ; preds = %173
  store i32 -1, ptr %18, align 4, !tbaa !13
  br label %181

175:                                              ; No predecessors!
  br label %176

176:                                              ; preds = %175
  br label %177

177:                                              ; preds = %176
  br label %178

178:                                              ; preds = %177
  br label %179

179:                                              ; preds = %178, %144
  br label %180

180:                                              ; preds = %179, %142
  br label %181

181:                                              ; preds = %180, %174, %106, %55
  %182 = load ptr, ptr %12, align 8, !tbaa !19
  %183 = icmp ne ptr %182, null
  br i1 %183, label %184, label %206

184:                                              ; preds = %181
  %185 = load ptr, ptr %6, align 8, !tbaa !3
  %186 = load i64, ptr %7, align 8, !tbaa !21
  %187 = load ptr, ptr %12, align 8, !tbaa !19
  %188 = call i32 @H5AC_unprotect(ptr noundef %185, ptr noundef @H5AC_SNODE, i64 noundef %186, ptr noundef %187, i32 noundef 0)
  %189 = icmp slt i32 %188, 0
  br i1 %189, label %190, label %206

190:                                              ; preds = %184
  br label %191

191:                                              ; preds = %190
  br label %192

192:                                              ; preds = %191
  br label %193

193:                                              ; preds = %192
  %194 = load i64, ptr @H5E_SYM_g, align 8, !tbaa !21
  %195 = load i64, ptr @H5E_CANTUNPROTECT_g, align 8, !tbaa !21
  %196 = call i32 (ptr, ptr, i32, i64, i64, ptr, ...) @H5E_printf_stack(ptr noundef @.str.2, ptr noundef @__func__.H5G__node_found, i32 noundef 506, i64 noundef %194, i64 noundef %195, ptr noundef @.str.36)
  br label %197

197:                                              ; preds = %193
  br label %198

198:                                              ; preds = %197
  store i8 1, ptr %19, align 1, !tbaa !9
  %199 = load i8, ptr %19, align 1, !tbaa !9, !range !11, !noundef !12
  %200 = trunc i8 %199 to i1
  %201 = zext i1 %200 to i8
  store i8 %201, ptr %19, align 1, !tbaa !9
  br label %202

202:                                              ; preds = %198
  br label %203

203:                                              ; preds = %202
  store i32 -1, ptr %18, align 4, !tbaa !13
  br label %204

204:                                              ; preds = %203
  br label %205

205:                                              ; preds = %204
  br label %206

206:                                              ; preds = %205, %184, %181
  br label %207

207:                                              ; preds = %206, %27
  %208 = load i32, ptr %18, align 4, !tbaa !13
  call void @llvm.lifetime.end.p0(i64 1, ptr %19) #8
  call void @llvm.lifetime.end.p0(i64 4, ptr %18) #8
  call void @llvm.lifetime.end.p0(i64 8, ptr %17) #8
  call void @llvm.lifetime.end.p0(i64 4, ptr %16) #8
  call void @llvm.lifetime.end.p0(i64 4, ptr %15) #8
  call void @llvm.lifetime.end.p0(i64 4, ptr %14) #8
  call void @llvm.lifetime.end.p0(i64 4, ptr %13) #8
  call void @llvm.lifetime.end.p0(i64 8, ptr %12) #8
  call void @llvm.lifetime.end.p0(i64 8, ptr %11) #8
  ret i32 %208
}