; Function Attrs: nounwind uwtable
define internal range(i32 -1, 1) i32 @H5G__node_found(ptr noundef %0, i64 noundef %1, ptr readnone captures(none) %2, ptr noundef writeonly captures(none) %3, ptr noundef readonly captures(none) %4) #0 {
  %6 = load i8, ptr @H5G_init_g, align 1, !tbaa !3, !range !7, !noundef !8
  %7 = trunc nuw i8 %6 to i1
  %8 = load i8, ptr @H5_libterm_g, align 1, !range !7
  %9 = trunc nuw i8 %8 to i1
  %10 = xor i1 %9, true
  %11 = select i1 %7, i1 true, i1 %10
  br i1 %11, label %12, label %74, !prof !9

12:                                               ; preds = %5
  %13 = tail call ptr @H5AC_protect(ptr noundef %0, ptr noundef nonnull @H5AC_SNODE, i64 noundef %1, ptr noundef %0, i32 noundef 128) #9
  %14 = icmp eq ptr %13, null
  br i1 %14, label %63, label %15

15:                                               ; preds = %12
  %16 = getelementptr inbounds nuw i8, ptr %13, i64 256
  %17 = load i32, ptr %16, align 8, !tbaa !33
  %.not = icmp eq i32 %17, 0
  br i1 %.not, label %._crit_edge.thread, label %.lr.ph

.lr.ph:                                           ; preds = %15
  %18 = getelementptr inbounds nuw i8, ptr %4, i64 8
  %19 = getelementptr inbounds nuw i8, ptr %13, i64 264
  %20 = getelementptr inbounds nuw i8, ptr %4, i64 16
  %.pre = load ptr, ptr %19, align 8, !tbaa !24
  br label %21

21:                                               ; preds = %.lr.ph, %35
  %22 = phi ptr [ %.pre, %.lr.ph ], [ %38, %35 ]
  %.03750 = phi i32 [ %17, %.lr.ph ], [ %.138, %35 ]
  %.04049 = phi i32 [ 0, %.lr.ph ], [ %.141, %35 ]
  %23 = add i32 %.03750, %.04049
  %24 = lshr i32 %23, 1
  %25 = load ptr, ptr %18, align 8, !tbaa !34
  %26 = zext nneg i32 %24 to i64
  %27 = getelementptr inbounds nuw %struct.H5G_entry_t, ptr %22, i64 %26, i32 2
  %28 = load i64, ptr %27, align 8, !tbaa !36
  %29 = tail call ptr @H5HL_offset_into(ptr noundef %25, i64 noundef %28) #9
  %30 = icmp eq ptr %29, null
  br i1 %30, label %31, label %35

31:                                               ; preds = %21
  %32 = load i64, ptr @H5E_SYM_g, align 8, !tbaa !10
  %33 = load i64, ptr @H5E_CANTGET_g, align 8, !tbaa !10
  %34 = tail call i32 (ptr, ptr, i32, i64, i64, ptr, ...) @H5E_printf_stack(ptr noundef nonnull @.str.2, ptr noundef nonnull @__func__.H5G__node_found, i32 noundef 484, i64 noundef %32, i64 noundef %33, ptr noundef nonnull @.str.46) #9
  br label %67

35:                                               ; preds = %21
  %36 = load ptr, ptr %4, align 8, !tbaa !38
  %37 = load i64, ptr %20, align 8, !tbaa !39
  %38 = load ptr, ptr %19, align 8, !tbaa !24
  %39 = getelementptr inbounds nuw %struct.H5G_entry_t, ptr %38, i64 %26, i32 2
  %40 = load i64, ptr %39, align 8, !tbaa !36
  %41 = sub i64 %37, %40
  %42 = tail call i32 @strncmp(ptr noundef %36, ptr noundef nonnull %29, i64 noundef %41) #10
  %43 = icmp slt i32 %42, 0
  %44 = add nuw i32 %24, 1
  %.141 = select i1 %43, i32 %.04049, i32 %44
  %.138 = select i1 %43, i32 %24, i32 %.03750
  %45 = icmp ult i32 %.141, %.138
  %46 = icmp ne i32 %42, 0
  %47 = and i1 %45, %46
  br i1 %47, label %21, label %._crit_edge, !llvm.loop !40

._crit_edge:                                      ; preds = %35
  br i1 %46, label %._crit_edge.thread, label %48

._crit_edge.thread:                               ; preds = %15, %._crit_edge
  store i8 0, ptr %3, align 1, !tbaa !3
  br label %67

48:                                               ; preds = %._crit_edge
  %49 = zext nneg i32 %24 to i64
  store i8 1, ptr %3, align 1, !tbaa !3
  %50 = getelementptr inbounds nuw i8, ptr %4, i64 24
  %51 = load ptr, ptr %50, align 8, !tbaa !42
  %52 = getelementptr inbounds nuw i8, ptr %13, i64 264
  %53 = load ptr, ptr %52, align 8, !tbaa !24
  %54 = getelementptr inbounds nuw %struct.H5G_entry_t, ptr %53, i64 %49
  %55 = getelementptr inbounds nuw i8, ptr %4, i64 32
  %56 = load ptr, ptr %55, align 8, !tbaa !43
  %57 = tail call i32 %51(ptr noundef %54, ptr noundef %56) #9
  %58 = icmp slt i32 %57, 0
  br i1 %58, label %59, label %67

59:                                               ; preds = %48
  %60 = load i64, ptr @H5E_SYM_g, align 8, !tbaa !10
  %61 = load i64, ptr @H5E_BADITER_g, align 8, !tbaa !10
  %62 = tail call i32 (ptr, ptr, i32, i64, i64, ptr, ...) @H5E_printf_stack(ptr noundef nonnull @.str.2, ptr noundef nonnull @__func__.H5G__node_found, i32 noundef 501, i64 noundef %60, i64 noundef %61, ptr noundef nonnull @.str.47) #9
  br label %67

63:                                               ; preds = %12
  %64 = load i64, ptr @H5E_SYM_g, align 8, !tbaa !10
  %65 = load i64, ptr @H5E_CANTPROTECT_g, align 8, !tbaa !10
  %66 = tail call i32 (ptr, ptr, i32, i64, i64, ptr, ...) @H5E_printf_stack(ptr noundef nonnull @.str.2, ptr noundef nonnull @__func__.H5G__node_found, i32 noundef 474, i64 noundef %64, i64 noundef %65, ptr noundef nonnull @.str.45) #9
  br label %74

67:                                               ; preds = %._crit_edge.thread, %48, %59, %31
  %.1.ph = phi i32 [ 0, %48 ], [ -1, %59 ], [ 0, %._crit_edge.thread ], [ -1, %31 ]
  %68 = tail call i32 @H5AC_unprotect(ptr noundef %0, ptr noundef nonnull @H5AC_SNODE, i64 noundef %1, ptr noundef nonnull %13, i32 noundef 0) #9
  %69 = icmp slt i32 %68, 0
  br i1 %69, label %70, label %74

70:                                               ; preds = %67
  %71 = load i64, ptr @H5E_SYM_g, align 8, !tbaa !10
  %72 = load i64, ptr @H5E_CANTUNPROTECT_g, align 8, !tbaa !10
  %73 = tail call i32 (ptr, ptr, i32, i64, i64, ptr, ...) @H5E_printf_stack(ptr noundef nonnull @.str.2, ptr noundef nonnull @__func__.H5G__node_found, i32 noundef 506, i64 noundef %71, i64 noundef %72, ptr noundef nonnull @.str.36) #9
  br label %74

74:                                               ; preds = %63, %67, %70, %5
  %.0 = phi i32 [ -1, %70 ], [ %.1.ph, %67 ], [ -1, %63 ], [ 0, %5 ]
  ret i32 %.0
}